-----BEGIN RSA PRIVATE KEY-----
Proc-Type: 4,ENCRYPTED
DEK-Info: AES-128-CBC,E6CDAFE693543E6E50D8EA9747D10BB8

BVR+9EdiWXZB8qjiABgyXu/AzjTmNKqrKl9XbL829Bh80XefJBSNtOPoIpHPw/CA
SV8pfjp+/bnjUwKtK1J/rMyxeVjQcKWXFj9QNafyO9EEL4uWZuBJpjNQaTmpBi6G
Bah87m15CSetFhXJxeBcImURMLV9wuAVQltQqgXz6Uj8BuD+ZT670rNK41n0+lgF
plPZzHUpyD3Apvylv/TK2jRqL9im7mXCe1W4IRrq8Fn0PtraGyxC31JgjmXwPqIA
CfiuDXnNGsxtTIGO6v2LzUJNOQd2QwgvOtURDCUyBpioZj7gG/sVK+NCPphR4czj
sJTQinF64JEJjWBzlVHLURzVQ0Lco6cO6TlIjB093hy2jwUSFGZI4vOaWlsvFMmc
iKdQ5hXtqRv51tv9S4F9RJBMlO+LRRasWvGwehaI8ncTQNbFa2q+md/II3wiyk0d
p/u0vlE+1Y+15G2LEjmCO4zxdwYvq5piyMepKiTxLcpvNjal60MKX7wqwTx0Gxvt
GmmaAFXVS7NbLfSdqrj0+EBT/jZ8oHn9RonCEpNMCxujqdh3IOGGtw7swuc6yuCI
Q7Y3uHnlCP91xrEeKAReHg1BiKxMl/8YWYJwEJo7PTSHr9YmUuYgcb4yUDtONaSZ
GOooBglKijVjB66jHuBYh8fBW3GPNWX2LtAvlnaP9sIIA2genX6fMTKd9pQ0G80c
P9Vi+udUiiIHDp/iCWx0PaBnzAd2oE6EkcfdvZc0KAxuIOTyrmywn6ijbbHpRDGO
YC6s+wi0ntrZznDtF4G//zD9bHY9rDChEhXufx4aCQKGlehXVbQy9ba5kwVh5oro
-----END RSA PRIVATE KEY-----
Certificate:
    Data:
        Version: 3 (0x2)
        Serial Number: 1 (0x1)
        Signature Algorithm: sha256WithRSAEncryption
        Issuer: C=AU, ST=NSW, L=SYD, O=UTS, OU=FEIT, CN=netsec.com.au/emailAddress=root@netsec.com.au
        Validity
            Not Before: Oct  2 00:08:58 2019 GMT
            Not After : Oct  1 00:08:58 2020 GMT
        Subject: C=AU, ST=NSW, O=UTS, OU=FEIT, CN=netsec.com.au/emailAddress=root@netsec.com.au
        Subject Public Key Info:
            Public Key Algorithm: rsaEncryption
                RSA Public-Key: (1024 bit)
                Modulus:
                    00:c2:21:39:1e:fa:cd:6f:18:c5:f9:39:95:2c:58:
                    48:5d:aa:80:e1:09:d6:7e:6d:2b:3e:8d:13:61:56:
                    ed:e2:b7:16:a1:95:e6:dc:b5:29:d1:53:a5:d7:a2:
                    0c:f5:7e:db:c9:a7:bd:97:19:13:3a:f6:f7:b2:d6:
                    db:c1:fe:40:1e:51:46:de:e8:6a:7b:27:9e:33:1c:
                    30:7e:d5:09:7f:0e:1d:c2:38:34:e8:10:22:36:39:
                    1e:cf:62:59:c6:bc:21:ea:ae:79:23:21:6a:f8:0e:
                    0a:c0:f1:6e:37:8f:d6:09:5e:7d:c6:65:6f:ee:9c:
                    65:37:1a:d3:71:ed:3d:6a:67
                Exponent: 65537 (0x10001)
        X509v3 extensions:
            X509v3 Basic Constraints: 
                CA:FALSE
            Netscape Comment: 
                OpenSSL Generated Certificate
            X509v3 Subject Key Identifier: 
                70:87:C5:34:5A:EA:70:5F:51:40:DC:02:00:81:5E:50:E9:C6:11:1A
            X509v3 Authority Key Identifier: 
                keyid:D4:D1:A5:69:00:9D:4A:78:43:99:0D:F4:9B:97:08:8C:A0:9D:00:86

    Signature Algorithm: sha256WithRSAEncryption
         d0:02:d0:ac:db:a1:24:a4:da:39:8d:48:22:ef:38:fd:9e:84:
         12:00:a7:a8:9c:3a:38:16:0c:56:db:ac:cf:7f:d2:09:fc:79:
         54:66:c8:2a:a5:d9:17:00:af:01:7c:13:a2:c3:0c:c6:9a:1a:
         c9:92:b6:a6:18:a6:33:9b:07:0a:00:d4:fe:6c:b1:e6:92:51:
         05:b8:89:f3:10:3c:74:f5:78:c6:1c:8d:05:02:9c:bf:5f:ee:
         0a:54:34:f4:62:66:f2:83:f5:5c:a0:5b:af:5c:21:9d:1b:bc:
         d4:f0:ef:82:60:b9:a2:04:4f:d8:9d:6d:d5:72:ae:ad:e9:98:
         1c:db:b3:12:d2:a2:cc:25:66:9b:e1:b9:b8:92:7e:1c:8f:1f:
         eb:5f:ad:64:2a:95:c0:14:01:83:4e:1c:81:8a:f9:4f:40:14:
         17:08:5a:6c:a8:fb:f2:31:d9:81:df:cd:8c:90:78:7d:ae:c4:
         17:62:49:88:49:fa:d5:9c:72:9b:3c:48:2b:33:de:d2:39:be:
         6c:e9:2c:3f:c3:ef:4c:75:b1:cb:fb:36:9c:bc:b2:5d:90:d5:
         32:e4:7b:1b:8c:85:19:79:ad:68:b0:cd:d2:06:22:2c:74:4e:
         33:1a:37:82:f5:81:3a:70:05:f7:b8:de:52:29:c7:96:07:7a:
         44:aa:cb:cc
-----BEGIN CERTIFICATE-----
MIIDZzCCAk+gAwIBAgIBATANBgkqhkiG9w0BAQsFADCBgTELMAkGA1UEBhMCQVUx
DDAKBgNVBAgMA05TVzEMMAoGA1UEBwwDU1lEMQwwCgYDVQQKDANVVFMxDTALBgNV
BAsMBEZFSVQxFjAUBgNVBAMMDW5ldHNlYy5jb20uYXUxITAfBgkqhkiG9w0BCQEW
EnJvb3RAbmV0c2VjLmNvbS5hdTAeFw0xOTEwMDIwMDA4NThaFw0yMDEwMDEwMDA4
NThaMHMxCzAJBgNVBAYTAkFVMQwwCgYDVQQIDANOU1cxDDAKBgNVBAoMA1VUUzEN
MAsGA1UECwwERkVJVDEWMBQGA1UEAwwNbmV0c2VjLmNvbS5hdTEhMB8GCSqGSIb3
DQEJARYScm9vdEBuZXRzZWMuY29tLmF1MIGfMA0GCSqGSIb3DQEBAQUAA4GNADCB
iQKBgQDCITke+s1vGMX5OZUsWEhdqoDhCdZ+bSs+jRNhVu3itxahlebctSnRU6XX
ogz1ftvJp72XGRM69vey1tvB/kAeUUbe6Gp7J54zHDB+1Ql/Dh3CODToECI2OR7P
YlnGvCHqrnkjIWr4DgrA8W43j9YJXn3GZW/unGU3GtNx7T1qZwIDAQABo3sweTAJ
BgNVHRMEAjAAMCwGCWCGSAGG+EIBDQQfFh1PcGVuU1NMIEdlbmVyYXRlZCBDZXJ0
aWZpY2F0ZTAdBgNVHQ4EFgQUcIfFNFrqcF9RQNwCAIFeUOnGERowHwYDVR0jBBgw
FoAU1NGlaQCdSnhDmQ30m5cIjKCdAIYwDQYJKoZIhvcNAQELBQADggEBANAC0Kzb
oSSk2jmNSCLvOP2ehBIAp6icOjgWDFbbrM9/0gn8eVRmyCql2RcArwF8E6LDDMaa
GsmStqYYpjObBwoA1P5sseaSUQW4ifMQPHT1eMYcjQUCnL9f7gpUNPRiZvKD9Vyg
W69cIZ0bvNTw74JguaIET9idbdVyrq3pmBzbsxLSoswlZpvhubiSfhyPH+tfrWQq
lcAUAYNOHIGK+U9AFBcIWmyo+/Ix2YHfzYyQeH2uxBdiSYhJ+tWccps8SCsz3tI5
vmzpLD/D70x1scv7Npy8sl2Q1TLkexuMhRl5rWiwzdIGIix0TjMaN4L1gTpwBfe4
3lIpx5YHekSqy8w=
-----END CERTIFICATE-----
